target datalayout = "e-m:e-p270:32:32-p271:32:32-p272:64:64-i64:64-i128:128-f80:128-n8:16:32:64-S128"
target triple = "x86_64-pc-linux-gnu"

%"struct.duckdb_re2::DFA::SearchParams" = type { %"class.duckdb_re2::StringPiece", %"class.duckdb_re2::StringPiece", i8, i8, i8, i8, ptr, ptr, i8, ptr, ptr }
%"class.duckdb_re2::StringPiece" = type { ptr, i64 }

; Function Attrs: mustprogress uwtable
define hidden noundef zeroext i1 @_ZN10duckdb_re23DFA14FastSearchLoopEPNS0_12SearchParamsE(ptr noundef nonnull align 8 dereferenceable(296) %0, ptr noundef %1) #1 align 2 {
  %3 = alloca ptr, align 8
  %4 = alloca ptr, align 8
  %5 = alloca i32, align 4
  store ptr %0, ptr %3, align 8, !tbaa !9
  store ptr %1, ptr %4, align 8, !tbaa !199
  %6 = load ptr, ptr %3, align 8
  call void @llvm.lifetime.start.p0(i64 4, ptr %5) #17
  %7 = load ptr, ptr %4, align 8, !tbaa !199
  %8 = getelementptr inbounds nuw %"struct.duckdb_re2::DFA::SearchParams", ptr %7, i32 0, i32 3
  %9 = load i8, ptr %8, align 1, !tbaa !240, !range !7, !noundef !8
  %10 = trunc i8 %9 to i1
  %11 = zext i1 %10 to i32
  %12 = mul nsw i32 4, %11
  %13 = load ptr, ptr %4, align 8, !tbaa !199
  %14 = getelementptr inbounds nuw %"struct.duckdb_re2::DFA::SearchParams", ptr %13, i32 0, i32 4
  %15 = load i8, ptr %14, align 2, !tbaa !241, !range !7, !noundef !8
  %16 = trunc i8 %15 to i1
  %17 = zext i1 %16 to i32
  %18 = mul nsw i32 2, %17
  %19 = add nsw i32 %12, %18
  %20 = load ptr, ptr %4, align 8, !tbaa !199
  %21 = getelementptr inbounds nuw %"struct.duckdb_re2::DFA::SearchParams", ptr %20, i32 0, i32 5
  %22 = load i8, ptr %21, align 1, !tbaa !242, !range !7, !noundef !8
  %23 = trunc i8 %22 to i1
  %24 = zext i1 %23 to i32
  %25 = mul nsw i32 1, %24
  %26 = add nsw i32 %19, %25
  store i32 %26, ptr %5, align 4, !tbaa !46
  %27 = load i32, ptr %5, align 4, !tbaa !46
  %28 = sext i32 %27 to i64
  %29 = getelementptr inbounds [8 x { i64, i64 }], ptr @_ZZN10duckdb_re23DFA14FastSearchLoopEPNS0_12SearchParamsEE8Searches, i64 0, i64 %28
  %30 = load { i64, i64 }, ptr %29, align 16, !tbaa !130
  %31 = extractvalue { i64, i64 } %30, 1
  %32 = getelementptr inbounds i8, ptr %6, i64 %31
  %33 = extractvalue { i64, i64 } %30, 0
  %34 = and i64 %33, 1
  %35 = icmp ne i64 %34, 0
  br i1 %35, label %36, label %41

36:                                               ; preds = %2
  %37 = load ptr, ptr %32, align 8, !tbaa !151
  %38 = sub i64 %33, 1
  %39 = getelementptr i8, ptr %37, i64 %38, !nosanitize !8
  %40 = load ptr, ptr %39, align 8, !nosanitize !8
  br label %43

41:                                               ; preds = %2
  %42 = inttoptr i64 %33 to ptr
  br label %43

43:                                               ; preds = %41, %36
  %44 = phi ptr [ %40, %36 ], [ %42, %41 ]
  %45 = load ptr, ptr %4, align 8, !tbaa !199
  %46 = call noundef zeroext i1 %44(ptr noundef nonnull align 8 dereferenceable(296) %32, ptr noundef %45)
  call void @llvm.lifetime.end.p0(i64 4, ptr %5) #17
  ret i1 %46
}