; Function Attrs: mustprogress uwtable
define hidden noundef zeroext i1 @_ZN10duckdb_re23DFA14FastSearchLoopEPNS0_12SearchParamsE(ptr noundef nonnull align 8 dereferenceable(296) %0, ptr noundef %1) local_unnamed_addr #1 align 2 {
  %3 = getelementptr inbounds nuw i8, ptr %1, i64 33
  %4 = load i8, ptr %3, align 1, !tbaa !214, !range !117, !noundef !118
  %5 = shl nuw nsw i8 %4, 2
  %6 = getelementptr inbounds nuw i8, ptr %1, i64 34
  %7 = load i8, ptr %6, align 2, !tbaa !215, !range !117, !noundef !118
  %8 = shl nuw nsw i8 %7, 1
  %9 = or disjoint i8 %8, %5
  %10 = getelementptr inbounds nuw i8, ptr %1, i64 35
  %11 = load i8, ptr %10, align 1, !tbaa !216, !range !117, !noundef !118
  %12 = or disjoint i8 %9, %11
  %13 = zext nneg i8 %12 to i64
  %14 = getelementptr inbounds nuw [8 x { i64, i64 }], ptr @_ZZN10duckdb_re23DFA14FastSearchLoopEPNS0_12SearchParamsEE8Searches, i64 0, i64 %13
  %.unpack = load i64, ptr %14, align 16, !tbaa !104
  %15 = and i64 %.unpack, 1
  %.not = icmp eq i64 %15, 0
  br i1 %.not, label %21, label %16

16:                                               ; preds = %2
  %17 = load ptr, ptr %0, align 8, !tbaa !143
  %18 = getelementptr i8, ptr %17, i64 %.unpack
  %19 = getelementptr i8, ptr %18, i64 -1
  %20 = load ptr, ptr %19, align 8, !nosanitize !118
  br label %23

21:                                               ; preds = %2
  %22 = inttoptr i64 %.unpack to ptr
  br label %23

23:                                               ; preds = %21, %16
  %24 = phi ptr [ %20, %16 ], [ %22, %21 ]
  %25 = tail call noundef zeroext i1 %24(ptr noundef nonnull align 8 dereferenceable(296) %0, ptr noundef nonnull %1)
  ret i1 %25
}